; Function Attrs: mustprogress uwtable
define void @grpc_tls_identity_pairs_add_pair(ptr noundef %pairs, ptr noundef %private_key, ptr noundef %cert_chain) local_unnamed_addr #3 personality ptr @__gxx_personality_v0 {
entry:
  %private_key.addr = alloca ptr, align 8
  %cert_chain.addr = alloca ptr, align 8
  store ptr %private_key, ptr %private_key.addr, align 8
  store ptr %cert_chain, ptr %cert_chain.addr, align 8
  %cmp.not = icmp eq ptr %pairs, null
  br i1 %cmp.not, label %if.then, label %do.body1

if.then:                                          ; preds = %entry
  tail call void @gpr_assertion_failed(ptr noundef nonnull @.str, i32 noundef 329, ptr noundef nonnull @.str.11) #17
  unreachable

do.body1:                                         ; preds = %entry
  %cmp2.not = icmp eq ptr %private_key, null
  br i1 %cmp2.not, label %if.then4, label %do.body7

if.then4:                                         ; preds = %do.body1
  tail call void @gpr_assertion_failed(ptr noundef nonnull @.str, i32 noundef 330, ptr noundef nonnull @.str.12) #17
  unreachable

do.body7:                                         ; preds = %do.body1
  %cmp8.not = icmp eq ptr %cert_chain, null
  br i1 %cmp8.not, label %if.then10, label %do.end12

if.then10:                                        ; preds = %do.body7
  tail call void @gpr_assertion_failed(ptr noundef nonnull @.str, i32 noundef 331, ptr noundef nonnull @.str.13) #17
  unreachable

do.end12:                                         ; preds = %do.body7
  %_M_finish.i = getelementptr inbounds i8, ptr %pairs, i64 8
  %0 = load ptr, ptr %_M_finish.i, align 8
  %_M_end_of_storage.i = getelementptr inbounds i8, ptr %pairs, i64 16
  %1 = load ptr, ptr %_M_end_of_storage.i, align 8
  %cmp.not.i = icmp eq ptr %0, %1
  br i1 %cmp.not.i, label %if.else.i, label %if.then.i

if.then.i:                                        ; preds = %do.end12
  %call.i.i.i.i.i = tail call noundef i64 @strlen(ptr noundef nonnull dereferenceable(1) %private_key) #18
  %call.i.i1.i.i.i = tail call noundef i64 @strlen(ptr noundef nonnull dereferenceable(1) %cert_chain) #18
  tail call void @_ZN9grpc_core14PemKeyCertPairC2ESt17basic_string_viewIcSt11char_traitsIcEES4_(ptr noundef nonnull align 8 dereferenceable(64) %0, i64 %call.i.i.i.i.i, ptr nonnull %private_key, i64 %call.i.i1.i.i.i, ptr nonnull %cert_chain)
  %2 = load ptr, ptr %_M_finish.i, align 8
  %incdec.ptr.i = getelementptr inbounds i8, ptr %2, i64 64
  store ptr %incdec.ptr.i, ptr %_M_finish.i, align 8
  br label %_ZNSt6vectorIN9grpc_core14PemKeyCertPairESaIS1_EE12emplace_backIJRPKcS7_EEERS1_DpOT_.exit

if.else.i:                                        ; preds = %do.end12
  call void @_ZNSt6vectorIN9grpc_core14PemKeyCertPairESaIS1_EE17_M_realloc_insertIJRPKcS7_EEEvN9__gnu_cxx17__normal_iteratorIPS1_S3_EEDpOT_(ptr noundef nonnull align 8 dereferenceable(24) %pairs, ptr %0, ptr noundef nonnull align 8 dereferenceable(8) %private_key.addr, ptr noundef nonnull align 8 dereferenceable(8) %cert_chain.addr)
  br label %_ZNSt6vectorIN9grpc_core14PemKeyCertPairESaIS1_EE12emplace_backIJRPKcS7_EEERS1_DpOT_.exit

_ZNSt6vectorIN9grpc_core14PemKeyCertPairESaIS1_EE12emplace_backIJRPKcS7_EEERS1_DpOT_.exit: ; preds = %if.then.i, %if.else.i
  ret void
}